target datalayout = "e-m:e-p270:32:32-p271:32:32-p272:64:64-i64:64-i128:128-f80:128-n8:16:32:64-S128"
target triple = "x86_64-pc-linux-gnu"

%"class.tinyxml2::XMLPrinter" = type { %"class.tinyxml2::XMLVisitor", i8, %"class.tinyxml2::DynArray.7", i8, ptr, i32, i32, i8, i8, [64 x i8], [64 x i8], [6 x i8], %"class.tinyxml2::DynArray.8" }
%"class.tinyxml2::XMLVisitor" = type { ptr }
%"class.tinyxml2::DynArray.7" = type { ptr, [10 x ptr], i32, i32 }
%"class.tinyxml2::DynArray.8" = type <{ ptr, [20 x i8], i32, i32, [4 x i8] }>

@.str.21 = private unnamed_addr constant [2 x i8] c"<\00", align 1

; Function Attrs: mustprogress uwtable
define linkonce_odr hidden void @_ZN8tinyxml28DynArrayIPKcLi10EE14EnsureCapacityEi(ptr noundef nonnull align 8 dereferenceable(96) %0, i32 noundef %1) #2 comdat align 2 {
  %3 = alloca ptr, align 8
  %4 = alloca i32, align 4
  %5 = alloca i32, align 4
  %6 = alloca ptr, align 8
  store ptr %0, ptr %3, align 8, !tbaa !220
  store i32 %1, ptr %4, align 4, !tbaa !15
  %7 = load ptr, ptr %3, align 8
  %8 = load i32, ptr %4, align 4, !tbaa !15
  %9 = getelementptr inbounds nuw %"class.tinyxml2::DynArray.7", ptr %7, i32 0, i32 2
  %10 = load i32, ptr %9, align 8, !tbaa !223
  %11 = icmp sgt i32 %8, %10
  br i1 %11, label %12, label %45

12:                                               ; preds = %2
  call void @llvm.lifetime.start.p0(i64 4, ptr %5) #18
  %13 = load i32, ptr %4, align 4, !tbaa !15
  %14 = mul nsw i32 %13, 2
  store i32 %14, ptr %5, align 4, !tbaa !15
  call void @llvm.lifetime.start.p0(i64 8, ptr %6) #18
  %15 = load i32, ptr %5, align 4, !tbaa !15
  %16 = sext i32 %15 to i64
  %17 = call { i64, i1 } @llvm.umul.with.overflow.i64(i64 %16, i64 8)
  %18 = extractvalue { i64, i1 } %17, 1
  %19 = extractvalue { i64, i1 } %17, 0
  %20 = select i1 %18, i64 -1, i64 %19
  %21 = call noalias noundef nonnull ptr @_Znam(i64 noundef %20) #20
  store ptr %21, ptr %6, align 8, !tbaa !268
  %22 = load ptr, ptr %6, align 8, !tbaa !268
  %23 = getelementptr inbounds nuw %"class.tinyxml2::DynArray.7", ptr %7, i32 0, i32 0
  %24 = load ptr, ptr %23, align 8, !tbaa !222
  %25 = getelementptr inbounds nuw %"class.tinyxml2::DynArray.7", ptr %7, i32 0, i32 3
  %26 = load i32, ptr %25, align 4, !tbaa !224
  %27 = sext i32 %26 to i64
  %28 = mul i64 8, %27
  call void @llvm.memcpy.p0.p0.i64(ptr align 8 %22, ptr align 8 %24, i64 %28, i1 false)
  %29 = getelementptr inbounds nuw %"class.tinyxml2::DynArray.7", ptr %7, i32 0, i32 0
  %30 = load ptr, ptr %29, align 8, !tbaa !222
  %31 = getelementptr inbounds nuw %"class.tinyxml2::DynArray.7", ptr %7, i32 0, i32 1
  %32 = getelementptr inbounds [10 x ptr], ptr %31, i64 0, i64 0
  %33 = icmp ne ptr %30, %32
  br i1 %33, label %34, label %40

34:                                               ; preds = %12
  %35 = getelementptr inbounds nuw %"class.tinyxml2::DynArray.7", ptr %7, i32 0, i32 0
  %36 = load ptr, ptr %35, align 8, !tbaa !222
  %37 = icmp eq ptr %36, null
  br i1 %37, label %39, label %38

38:                                               ; preds = %34
  call void @_ZdaPv(ptr noundef %36) #17
  br label %39

39:                                               ; preds = %38, %34
  br label %40

40:                                               ; preds = %39, %12
  %41 = load ptr, ptr %6, align 8, !tbaa !268
  %42 = getelementptr inbounds nuw %"class.tinyxml2::DynArray.7", ptr %7, i32 0, i32 0
  store ptr %41, ptr %42, align 8, !tbaa !222
  %43 = load i32, ptr %5, align 4, !tbaa !15
  %44 = getelementptr inbounds nuw %"class.tinyxml2::DynArray.7", ptr %7, i32 0, i32 2
  store i32 %43, ptr %44, align 8, !tbaa !223
  call void @llvm.lifetime.end.p0(i64 8, ptr %6) #18
  call void @llvm.lifetime.end.p0(i64 4, ptr %5) #18
  br label %45

45:                                               ; preds = %40, %2
  ret void
}

; Function Attrs: mustprogress uwtable
define void @_ZN8tinyxml210XMLPrinter23SealElementIfJustOpenedEv(ptr noundef nonnull align 8 dereferenceable(312) %0) #2 align 2 {
  %2 = alloca ptr, align 8
  store ptr %0, ptr %2, align 8, !tbaa !194
  %3 = load ptr, ptr %2, align 8
  %4 = getelementptr inbounds nuw %"class.tinyxml2::XMLPrinter", ptr %3, i32 0, i32 1
  %5 = load i8, ptr %4, align 8, !tbaa !206, !range !35, !noundef !36
  %6 = trunc i8 %5 to i1
  br i1 %6, label %8, label %7

7:                                                ; preds = %1
  br label %13

8:                                                ; preds = %1
  %9 = getelementptr inbounds nuw %"class.tinyxml2::XMLPrinter", ptr %3, i32 0, i32 1
  store i8 0, ptr %9, align 8, !tbaa !206
  %10 = load ptr, ptr %3, align 8, !tbaa !91
  %11 = getelementptr inbounds ptr, ptr %10, i64 15
  %12 = load ptr, ptr %11, align 8
  call void %12(ptr noundef nonnull align 8 dereferenceable(312) %3, i8 noundef signext 62)
  br label %13

13:                                               ; preds = %8, %7
  ret void
}

; Function Attrs: inlinehint mustprogress uwtable
define linkonce_odr hidden void @_ZN8tinyxml210XMLPrinter5WriteEPKc(ptr noundef nonnull align 8 dereferenceable(312) %0, ptr noundef %1) #11 comdat align 2 {
  %3 = alloca ptr, align 8
  %4 = alloca ptr, align 8
  store ptr %0, ptr %3, align 8, !tbaa !194
  store ptr %1, ptr %4, align 8, !tbaa !14
  %5 = load ptr, ptr %3, align 8
  %6 = load ptr, ptr %4, align 8, !tbaa !14
  %7 = load ptr, ptr %4, align 8, !tbaa !14
  %8 = call i64 @strlen(ptr noundef %7) #19
  %9 = load ptr, ptr %5, align 8, !tbaa !91
  %10 = getelementptr inbounds ptr, ptr %9, i64 14
  %11 = load ptr, ptr %10, align 8
  call void %11(ptr noundef nonnull align 8 dereferenceable(312) %5, ptr noundef %6, i64 noundef %8)
  ret void
}

; Function Attrs: mustprogress uwtable
define linkonce_odr hidden void @_ZN8tinyxml28DynArrayIPKcLi10EE4PushES2_(ptr noundef nonnull align 8 dereferenceable(96) %0, ptr noundef %1) #2 comdat align 2 {
  %3 = alloca ptr, align 8
  %4 = alloca ptr, align 8
  store ptr %0, ptr %3, align 8, !tbaa !220
  store ptr %1, ptr %4, align 8, !tbaa !14
  %5 = load ptr, ptr %3, align 8
  %6 = getelementptr inbounds nuw %"class.tinyxml2::DynArray.7", ptr %5, i32 0, i32 3
  %7 = load i32, ptr %6, align 4, !tbaa !224
  %8 = add nsw i32 %7, 1
  call void @_ZN8tinyxml28DynArrayIPKcLi10EE14EnsureCapacityEi(ptr noundef nonnull align 8 dereferenceable(96) %5, i32 noundef %8)
  %9 = load ptr, ptr %4, align 8, !tbaa !14
  %10 = getelementptr inbounds nuw %"class.tinyxml2::DynArray.7", ptr %5, i32 0, i32 0
  %11 = load ptr, ptr %10, align 8, !tbaa !222
  %12 = getelementptr inbounds nuw %"class.tinyxml2::DynArray.7", ptr %5, i32 0, i32 3
  %13 = load i32, ptr %12, align 4, !tbaa !224
  %14 = sext i32 %13 to i64
  %15 = getelementptr inbounds ptr, ptr %11, i64 %14
  store ptr %9, ptr %15, align 8, !tbaa !14
  %16 = getelementptr inbounds nuw %"class.tinyxml2::DynArray.7", ptr %5, i32 0, i32 3
  %17 = load i32, ptr %16, align 4, !tbaa !224
  %18 = add nsw i32 %17, 1
  store i32 %18, ptr %16, align 4, !tbaa !224
  ret void
}

; Function Attrs: mustprogress uwtable
define void @_ZN8tinyxml210XMLPrinter17PrepareForNewNodeEb(ptr noundef nonnull align 8 dereferenceable(312) %0, i1 noundef zeroext %1) #2 align 2 {
  %3 = alloca ptr, align 8
  %4 = alloca i8, align 1
  store ptr %0, ptr %3, align 8, !tbaa !194
  %5 = zext i1 %1 to i8
  store i8 %5, ptr %4, align 1, !tbaa !26
  %6 = load ptr, ptr %3, align 8
  call void @_ZN8tinyxml210XMLPrinter23SealElementIfJustOpenedEv(ptr noundef nonnull align 8 dereferenceable(312) %6)
  %7 = load i8, ptr %4, align 1, !tbaa !26, !range !35, !noundef !36
  %8 = trunc i8 %7 to i1
  br i1 %8, label %9, label %10

9:                                                ; preds = %2
  br label %36

10:                                               ; preds = %2
  %11 = getelementptr inbounds nuw %"class.tinyxml2::XMLPrinter", ptr %6, i32 0, i32 3
  %12 = load i8, ptr %11, align 8, !tbaa !212, !range !35, !noundef !36
  %13 = trunc i8 %12 to i1
  br i1 %13, label %14, label %20

14:                                               ; preds = %10
  %15 = getelementptr inbounds nuw %"class.tinyxml2::XMLPrinter", ptr %6, i32 0, i32 5
  %16 = load i32, ptr %15, align 8, !tbaa !214
  %17 = load ptr, ptr %6, align 8, !tbaa !91
  %18 = getelementptr inbounds ptr, ptr %17, i64 12
  %19 = load ptr, ptr %18, align 8
  call void %19(ptr noundef nonnull align 8 dereferenceable(312) %6, i32 noundef %16)
  br label %34

20:                                               ; preds = %10
  %21 = getelementptr inbounds nuw %"class.tinyxml2::XMLPrinter", ptr %6, i32 0, i32 6
  %22 = load i32, ptr %21, align 4, !tbaa !215
  %23 = icmp slt i32 %22, 0
  br i1 %23, label %24, label %33

24:                                               ; preds = %20
  %25 = load ptr, ptr %6, align 8, !tbaa !91
  %26 = getelementptr inbounds ptr, ptr %25, i64 15
  %27 = load ptr, ptr %26, align 8
  call void %27(ptr noundef nonnull align 8 dereferenceable(312) %6, i8 noundef signext 10)
  %28 = getelementptr inbounds nuw %"class.tinyxml2::XMLPrinter", ptr %6, i32 0, i32 5
  %29 = load i32, ptr %28, align 8, !tbaa !214
  %30 = load ptr, ptr %6, align 8, !tbaa !91
  %31 = getelementptr inbounds ptr, ptr %30, i64 12
  %32 = load ptr, ptr %31, align 8
  call void %32(ptr noundef nonnull align 8 dereferenceable(312) %6, i32 noundef %29)
  br label %33

33:                                               ; preds = %24, %20
  br label %34

34:                                               ; preds = %33, %14
  %35 = getelementptr inbounds nuw %"class.tinyxml2::XMLPrinter", ptr %6, i32 0, i32 3
  store i8 0, ptr %35, align 8, !tbaa !212
  br label %36

36:                                               ; preds = %34, %9
  ret void
}

; Function Attrs: mustprogress uwtable
define void @_ZN8tinyxml210XMLPrinter11OpenElementEPKcb(ptr noundef nonnull align 8 dereferenceable(312) %0, ptr noundef %1, i1 noundef zeroext %2) #2 align 2 {
  %4 = alloca ptr, align 8
  %5 = alloca ptr, align 8
  %6 = alloca i8, align 1
  store ptr %0, ptr %4, align 8, !tbaa !194
  store ptr %1, ptr %5, align 8, !tbaa !14
  %7 = zext i1 %2 to i8
  store i8 %7, ptr %6, align 1, !tbaa !26
  %8 = load ptr, ptr %4, align 8
  %9 = load i8, ptr %6, align 1, !tbaa !26, !range !35, !noundef !36
  %10 = trunc i8 %9 to i1
  call void @_ZN8tinyxml210XMLPrinter17PrepareForNewNodeEb(ptr noundef nonnull align 8 dereferenceable(312) %8, i1 noundef zeroext %10)
  %11 = getelementptr inbounds nuw %"class.tinyxml2::XMLPrinter", ptr %8, i32 0, i32 2
  %12 = load ptr, ptr %5, align 8, !tbaa !14
  call void @_ZN8tinyxml28DynArrayIPKcLi10EE4PushES2_(ptr noundef nonnull align 8 dereferenceable(96) %11, ptr noundef %12)
  call void @_ZN8tinyxml210XMLPrinter5WriteEPKc(ptr noundef nonnull align 8 dereferenceable(312) %8, ptr noundef @.str.21)
  %13 = load ptr, ptr %5, align 8, !tbaa !14
  call void @_ZN8tinyxml210XMLPrinter5WriteEPKc(ptr noundef nonnull align 8 dereferenceable(312) %8, ptr noundef %13)
  %14 = getelementptr inbounds nuw %"class.tinyxml2::XMLPrinter", ptr %8, i32 0, i32 1
  store i8 1, ptr %14, align 8, !tbaa !206
  %15 = getelementptr inbounds nuw %"class.tinyxml2::XMLPrinter", ptr %8, i32 0, i32 5
  %16 = load i32, ptr %15, align 8, !tbaa !214
  %17 = add nsw i32 %16, 1
  store i32 %17, ptr %15, align 8, !tbaa !214
  ret void
}