; Function Attrs: mustprogress uwtable
define void @_ZN8tinyxml210XMLPrinter11OpenElementEPKcb(ptr noundef nonnull align 8 dereferenceable(312) %0, ptr noundef %1, i1 noundef zeroext %2) local_unnamed_addr #4 align 2 {
  %4 = getelementptr inbounds nuw i8, ptr %0, i64 8
  %5 = load i8, ptr %4, align 8, !tbaa !157, !range !94, !noundef !95
  %6 = trunc nuw i8 %5 to i1
  br i1 %6, label %7, label %_ZN8tinyxml210XMLPrinter23SealElementIfJustOpenedEv.exit.i

7:                                                ; preds = %3
  store i8 0, ptr %4, align 8, !tbaa !157
  %8 = load ptr, ptr %0, align 8, !tbaa !63
  %9 = getelementptr inbounds nuw i8, ptr %8, i64 120
  %10 = load ptr, ptr %9, align 8
  tail call void %10(ptr noundef nonnull align 8 dereferenceable(312) %0, i8 noundef signext 62)
  br label %_ZN8tinyxml210XMLPrinter23SealElementIfJustOpenedEv.exit.i

_ZN8tinyxml210XMLPrinter23SealElementIfJustOpenedEv.exit.i: ; preds = %7, %3
  br i1 %2, label %_ZN8tinyxml210XMLPrinter17PrepareForNewNodeEb.exit, label %11

11:                                               ; preds = %_ZN8tinyxml210XMLPrinter23SealElementIfJustOpenedEv.exit.i
  %12 = getelementptr inbounds nuw i8, ptr %0, i64 112
  %13 = load i8, ptr %12, align 8, !tbaa !162, !range !94, !noundef !95
  %14 = trunc nuw i8 %13 to i1
  br i1 %14, label %.sink.split.i, label %15

15:                                               ; preds = %11
  %16 = getelementptr inbounds nuw i8, ptr %0, i64 132
  %17 = load i32, ptr %16, align 4, !tbaa !165
  %18 = icmp slt i32 %17, 0
  br i1 %18, label %19, label %28

19:                                               ; preds = %15
  %20 = load ptr, ptr %0, align 8, !tbaa !63
  %21 = getelementptr inbounds nuw i8, ptr %20, i64 120
  %22 = load ptr, ptr %21, align 8
  tail call void %22(ptr noundef nonnull align 8 dereferenceable(312) %0, i8 noundef signext 10)
  br label %.sink.split.i

.sink.split.i:                                    ; preds = %19, %11
  %23 = getelementptr inbounds nuw i8, ptr %0, i64 128
  %24 = load i32, ptr %23, align 8, !tbaa !164
  %25 = load ptr, ptr %0, align 8, !tbaa !63
  %26 = getelementptr inbounds nuw i8, ptr %25, i64 96
  %27 = load ptr, ptr %26, align 8
  tail call void %27(ptr noundef nonnull align 8 dereferenceable(312) %0, i32 noundef %24)
  br label %28

28:                                               ; preds = %.sink.split.i, %15
  store i8 0, ptr %12, align 8, !tbaa !162
  br label %_ZN8tinyxml210XMLPrinter17PrepareForNewNodeEb.exit

_ZN8tinyxml210XMLPrinter17PrepareForNewNodeEb.exit: ; preds = %_ZN8tinyxml210XMLPrinter23SealElementIfJustOpenedEv.exit.i, %28
  %29 = getelementptr inbounds nuw i8, ptr %0, i64 16
  %30 = getelementptr inbounds nuw i8, ptr %0, i64 108
  %31 = load i32, ptr %30, align 4, !tbaa !161
  %32 = getelementptr inbounds nuw i8, ptr %0, i64 104
  %33 = load i32, ptr %32, align 8, !tbaa !160
  %.not.i = icmp slt i32 %31, %33
  br i1 %.not.i, label %._ZN8tinyxml28DynArrayIPKcLi10EE14EnsureCapacityEi.exit_crit_edge.i, label %34

._ZN8tinyxml28DynArrayIPKcLi10EE14EnsureCapacityEi.exit_crit_edge.i: ; preds = %_ZN8tinyxml210XMLPrinter17PrepareForNewNodeEb.exit
  %.pre.i = load ptr, ptr %29, align 8, !tbaa !152
  br label %_ZN8tinyxml28DynArrayIPKcLi10EE4PushES2_.exit

34:                                               ; preds = %_ZN8tinyxml210XMLPrinter17PrepareForNewNodeEb.exit
  %35 = shl i32 %31, 1
  %36 = add i32 %35, 2
  %37 = sext i32 %36 to i64
  %38 = icmp slt i32 %31, -1
  %39 = shl nsw i64 %37, 3
  %40 = select i1 %38, i64 -1, i64 %39
  %41 = tail call noalias noundef nonnull ptr @_Znam(i64 noundef %40) #34
  %42 = load ptr, ptr %29, align 8, !tbaa !152
  %43 = sext i32 %31 to i64
  %44 = shl nsw i64 %43, 3
  tail call void @llvm.memcpy.p0.p0.i64(ptr nonnull align 8 %41, ptr align 8 %42, i64 %44, i1 false)
  %45 = getelementptr inbounds nuw i8, ptr %0, i64 24
  %.not.i.i = icmp eq ptr %42, %45
  %46 = icmp eq ptr %42, null
  %or.cond.i.i = or i1 %.not.i.i, %46
  br i1 %or.cond.i.i, label %48, label %47

47:                                               ; preds = %34
  tail call void @_ZdaPv(ptr noundef nonnull %42) #30
  %.pre2.pre.i = load i32, ptr %30, align 4, !tbaa !161
  br label %48

48:                                               ; preds = %47, %34
  %.pre2.i = phi i32 [ %.pre2.pre.i, %47 ], [ %31, %34 ]
  store ptr %41, ptr %29, align 8, !tbaa !152
  store i32 %36, ptr %32, align 8, !tbaa !160
  br label %_ZN8tinyxml28DynArrayIPKcLi10EE4PushES2_.exit

_ZN8tinyxml28DynArrayIPKcLi10EE4PushES2_.exit:    ; preds = %._ZN8tinyxml28DynArrayIPKcLi10EE14EnsureCapacityEi.exit_crit_edge.i, %48
  %49 = phi i32 [ %31, %._ZN8tinyxml28DynArrayIPKcLi10EE14EnsureCapacityEi.exit_crit_edge.i ], [ %.pre2.i, %48 ]
  %50 = phi ptr [ %.pre.i, %._ZN8tinyxml28DynArrayIPKcLi10EE14EnsureCapacityEi.exit_crit_edge.i ], [ %41, %48 ]
  %51 = sext i32 %49 to i64
  %52 = getelementptr inbounds ptr, ptr %50, i64 %51
  store ptr %1, ptr %52, align 8, !tbaa !29
  %53 = add nsw i32 %49, 1
  store i32 %53, ptr %30, align 4, !tbaa !161
  %54 = load ptr, ptr %0, align 8, !tbaa !63
  %55 = getelementptr inbounds nuw i8, ptr %54, i64 112
  %56 = load ptr, ptr %55, align 8
  tail call void %56(ptr noundef nonnull align 8 dereferenceable(312) %0, ptr noundef nonnull @.str.21, i64 noundef 1)
  %57 = tail call i64 @strlen(ptr noundef nonnull dereferenceable(1) %1) #33
  %58 = load ptr, ptr %0, align 8, !tbaa !63
  %59 = getelementptr inbounds nuw i8, ptr %58, i64 112
  %60 = load ptr, ptr %59, align 8
  tail call void %60(ptr noundef nonnull align 8 dereferenceable(312) %0, ptr noundef nonnull %1, i64 noundef %57)
  store i8 1, ptr %4, align 8, !tbaa !157
  %61 = getelementptr inbounds nuw i8, ptr %0, i64 128
  %62 = load i32, ptr %61, align 8, !tbaa !164
  %63 = add nsw i32 %62, 1
  store i32 %63, ptr %61, align 8, !tbaa !164
  ret void
}